target datalayout = "e-m:e-p270:32:32-p271:32:32-p272:64:64-i64:64-i128:128-f80:128-n8:16:32:64-S128"
target triple = "x86_64-unknown-linux-gnu"

%"class.std::set.0" = type { %"class.std::_Rb_tree.1" }
%"class.std::_Rb_tree.1" = type { %"struct.std::_Rb_tree<QuantLib::Observer *, QuantLib::Observer *, std::_Identity<QuantLib::Observer *>, std::less<QuantLib::Observer *>>::_Rb_tree_impl" }
%"struct.std::_Rb_tree<QuantLib::Observer *, QuantLib::Observer *, std::_Identity<QuantLib::Observer *>, std::less<QuantLib::Observer *>>::_Rb_tree_impl" = type { [8 x i8], %"struct.std::_Rb_tree_header" }
%"struct.std::_Rb_tree_header" = type { %"struct.std::_Rb_tree_node_base", i64 }
%"struct.std::_Rb_tree_node_base" = type { i32, ptr, ptr, ptr }
%"class.QuantLib::Date" = type { i64 }
%"class.boost::detail::shared_count" = type { ptr }
%"class.std::set" = type { %"class.std::_Rb_tree" }
%"class.std::_Rb_tree" = type { %"struct.std::_Rb_tree<boost::shared_ptr<QuantLib::Observable>, boost::shared_ptr<QuantLib::Observable>, std::_Identity<boost::shared_ptr<QuantLib::Observable>>, std::less<boost::shared_ptr<QuantLib::Observable>>>::_Rb_tree_impl" }
%"struct.std::_Rb_tree<boost::shared_ptr<QuantLib::Observable>, boost::shared_ptr<QuantLib::Observable>, std::_Identity<boost::shared_ptr<QuantLib::Observable>>, std::less<boost::shared_ptr<QuantLib::Observable>>>::_Rb_tree_impl" = type { [8 x i8], %"struct.std::_Rb_tree_header" }
%"class.QuantLib::Observable" = type { ptr, %"class.std::set.0" }
%"class.QuantLib::Observer" = type { ptr, %"class.std::set" }
%"class.QuantLib::DayCounter" = type { %"class.boost::shared_ptr.16" }
%"class.boost::shared_ptr.16" = type { ptr, %"class.boost::detail::shared_count" }
%"class.boost::shared_ptr.39" = type { ptr, %"class.boost::detail::shared_count" }
%"class.std::vector.40" = type { %"struct.std::_Vector_base.41" }
%"struct.std::_Vector_base.41" = type { %"struct.std::_Vector_base<std::vector<double>, std::allocator<std::vector<double>>>::_Vector_impl" }
%"struct.std::_Vector_base<std::vector<double>, std::allocator<std::vector<double>>>::_Vector_impl" = type { %"struct.std::_Vector_base<std::vector<double>, std::allocator<std::vector<double>>>::_Vector_impl_data" }
%"struct.std::_Vector_base<std::vector<double>, std::allocator<std::vector<double>>>::_Vector_impl_data" = type { ptr, ptr, ptr }
%"class.std::vector.31" = type { %"struct.std::_Vector_base.32" }
%"struct.std::_Vector_base.32" = type { %"struct.std::_Vector_base<std::vector<QuantLib::Handle<QuantLib::Quote>>, std::allocator<std::vector<QuantLib::Handle<QuantLib::Quote>>>>::_Vector_impl" }
%"struct.std::_Vector_base<std::vector<QuantLib::Handle<QuantLib::Quote>>, std::allocator<std::vector<QuantLib::Handle<QuantLib::Quote>>>>::_Vector_impl" = type { %"struct.std::_Vector_base<std::vector<QuantLib::Handle<QuantLib::Quote>>, std::allocator<std::vector<QuantLib::Handle<QuantLib::Quote>>>>::_Vector_impl_data" }
%"struct.std::_Vector_base<std::vector<QuantLib::Handle<QuantLib::Quote>>, std::allocator<std::vector<QuantLib::Handle<QuantLib::Quote>>>>::_Vector_impl_data" = type { ptr, ptr, ptr }
%"struct.std::_Vector_base.22" = type { %"struct.std::_Vector_base<QuantLib::Date, std::allocator<QuantLib::Date>>::_Vector_impl" }
%"struct.std::_Vector_base<QuantLib::Date, std::allocator<QuantLib::Date>>::_Vector_impl" = type { %"struct.std::_Vector_base<QuantLib::Date, std::allocator<QuantLib::Date>>::_Vector_impl_data" }
%"struct.std::_Vector_base<QuantLib::Date, std::allocator<QuantLib::Date>>::_Vector_impl_data" = type { ptr, ptr, ptr }
%"class.QuantLib::StrippedOptionlet" = type { %"class.QuantLib::StrippedOptionletBase.base", %"class.QuantLib::Calendar", i32, i32, %"class.QuantLib::DayCounter", %"class.boost::shared_ptr.39", i32, double, i64, %"class.std::vector.21", %"class.std::vector.26", %"class.std::vector.26", %"class.std::vector.40", %"class.std::vector.31", %"class.std::vector.40", %"class.QuantLib::Observable", %"class.QuantLib::Observer" }
%"class.QuantLib::StrippedOptionletBase.base" = type { %"class.QuantLib::LazyObject.base" }
%"class.QuantLib::LazyObject.base" = type <{ ptr, i8, i8, i8, i8 }>
%"class.QuantLib::Calendar" = type { %"class.boost::shared_ptr.17" }
%"class.boost::shared_ptr.17" = type { ptr, %"class.boost::detail::shared_count" }
%"class.std::vector.21" = type { %"struct.std::_Vector_base.22" }
%"class.std::vector.26" = type { %"struct.std::_Vector_base.27" }
%"struct.std::_Vector_base.27" = type { %"struct.std::_Vector_base<double, std::allocator<double>>::_Vector_impl" }
%"struct.std::_Vector_base<double, std::allocator<double>>::_Vector_impl" = type { %"struct.std::_Vector_base<double, std::allocator<double>>::_Vector_impl_data" }
%"struct.std::_Vector_base<double, std::allocator<double>>::_Vector_impl_data" = type { ptr, ptr, ptr }

@.str.23 = private unnamed_addr constant [8 x i8] c"px != 0\00", align 1
@.str.24 = private unnamed_addr constant [102 x i8] c"generated/home/dtcxzyw/WorkSpace/SDK/vcpkg/installed/x64-linux/include/boost/smart_ptr/shared_ptr.hpp\00", align 1
@__PRETTY_FUNCTION__._ZNK5boost10shared_ptrIN8QuantLib9IborIndexEEptEv = private unnamed_addr constant [135 x i8] c"typename boost::detail::sp_member_access<T>::type boost::shared_ptr<QuantLib::IborIndex>::operator->() const [T = QuantLib::IborIndex]\00", align 1

; Function Attrs: mustprogress nounwind uwtable
define linkonce_odr noundef nonnull align 8 dereferenceable(8) ptr @_ZNSt6vectorIdSaIdEEixEm(ptr noundef nonnull align 8 dereferenceable(24) %this, i64 noundef %__n) #1 comdat align 2 {
entry:
  %this.addr = alloca ptr, align 8
  %__n.addr = alloca i64, align 8
  store ptr %this, ptr %this.addr, align 8, !tbaa !3
  store i64 %__n, ptr %__n.addr, align 8, !tbaa !37
  %this1 = load ptr, ptr %this.addr, align 8
  %_M_impl = getelementptr inbounds nuw %"struct.std::_Vector_base.27", ptr %this1, i32 0, i32 0
  %_M_start = getelementptr inbounds nuw %"struct.std::_Vector_base<double, std::allocator<double>>::_Vector_impl_data", ptr %_M_impl, i32 0, i32 0
  %0 = load ptr, ptr %_M_start, align 8, !tbaa !79
  %1 = load i64, ptr %__n.addr, align 8, !tbaa !37
  %add.ptr = getelementptr inbounds nuw double, ptr %0, i64 %1
  ret ptr %add.ptr
}

; Function Attrs: mustprogress nounwind uwtable
define linkonce_odr noundef nonnull align 8 dereferenceable(8) ptr @_ZNKSt6vectorIN8QuantLib4DateESaIS1_EEixEm(ptr noundef nonnull align 8 dereferenceable(24) %this, i64 noundef %__n) #1 comdat align 2 {
entry:
  %this.addr = alloca ptr, align 8
  %__n.addr = alloca i64, align 8
  store ptr %this, ptr %this.addr, align 8, !tbaa !3
  store i64 %__n, ptr %__n.addr, align 8, !tbaa !37
  %this1 = load ptr, ptr %this.addr, align 8
  %_M_impl = getelementptr inbounds nuw %"struct.std::_Vector_base.22", ptr %this1, i32 0, i32 0
  %_M_start = getelementptr inbounds nuw %"struct.std::_Vector_base<QuantLib::Date, std::allocator<QuantLib::Date>>::_Vector_impl_data", ptr %_M_impl, i32 0, i32 0
  %0 = load ptr, ptr %_M_start, align 8, !tbaa !36
  %1 = load i64, ptr %__n.addr, align 8, !tbaa !37
  %add.ptr = getelementptr inbounds nuw %"class.QuantLib::Date", ptr %0, i64 %1
  ret ptr %add.ptr
}

; Function Attrs: mustprogress uwtable
define linkonce_odr noundef ptr @_ZNK5boost10shared_ptrIN8QuantLib9IborIndexEEptEv(ptr noundef nonnull align 8 dereferenceable(16) %this) #2 comdat align 2 {
entry:
  %this.addr = alloca ptr, align 8
  store ptr %this, ptr %this.addr, align 8, !tbaa !3
  %this1 = load ptr, ptr %this.addr, align 8
  %px = getelementptr inbounds nuw %"class.boost::shared_ptr.39", ptr %this1, i32 0, i32 0
  %0 = load ptr, ptr %px, align 8, !tbaa !32
  %cmp = icmp ne ptr %0, null
  %lnot = xor i1 %cmp, true
  %lnot2 = xor i1 %lnot, true
  %conv = zext i1 %lnot2 to i64
  %expval = call i64 @llvm.expect.i64(i64 %conv, i64 1)
  %tobool = icmp ne i64 %expval, 0
  br i1 %tobool, label %cond.true, label %cond.false

cond.true:                                        ; preds = %entry
  br label %cond.end

cond.false:                                       ; preds = %entry
  call void @_ZN5boost16assertion_failedEPKcS1_S1_l(ptr noundef @.str.23, ptr noundef @__PRETTY_FUNCTION__._ZNK5boost10shared_ptrIN8QuantLib9IborIndexEEptEv, ptr noundef @.str.24, i64 noundef 784)
  br label %cond.end

cond.end:                                         ; preds = %cond.false, %cond.true
  %px3 = getelementptr inbounds nuw %"class.boost::shared_ptr.39", ptr %this1, i32 0, i32 0
  %1 = load ptr, ptr %px3, align 8, !tbaa !32
  ret ptr %1
}

; Function Attrs: mustprogress uwtable
define noundef nonnull align 8 dereferenceable(24) ptr @_ZNK8QuantLib17StrippedOptionlet17atmOptionletRatesEv(ptr noundef nonnull align 8 dereferenceable(240) %this) unnamed_addr #2 align 2 {
entry:
  %this.addr = alloca ptr, align 8
  %i = alloca i64, align 8
  store ptr %this, ptr %this.addr, align 8, !tbaa !3
  %this1 = load ptr, ptr %this.addr, align 8
  %vtable = load ptr, ptr %this1, align 8, !tbaa !20
  %vfn = getelementptr inbounds ptr, ptr %vtable, i64 3
  %0 = load ptr, ptr %vfn, align 8
  call void %0(ptr noundef nonnull align 8 dereferenceable(12) %this1)
  call void @llvm.lifetime.start.p0(i64 8, ptr %i) #12
  store i64 0, ptr %i, align 8, !tbaa !37
  br label %for.cond

for.cond:                                         ; preds = %for.inc, %entry
  %1 = load i64, ptr %i, align 8, !tbaa !37
  %nOptionletDates_ = getelementptr inbounds nuw %"class.QuantLib::StrippedOptionlet", ptr %this1, i32 0, i32 8
  %2 = load i64, ptr %nOptionletDates_, align 8, !tbaa !64
  %cmp = icmp ult i64 %1, %2
  br i1 %cmp, label %for.body, label %for.cond.cleanup

for.cond.cleanup:                                 ; preds = %for.cond
  call void @llvm.lifetime.end.p0(i64 8, ptr %i) #12
  br label %for.end

for.body:                                         ; preds = %for.cond
  %iborIndex_ = getelementptr inbounds nuw %"class.QuantLib::StrippedOptionlet", ptr %this1, i32 0, i32 5
  %call = call noundef ptr @_ZNK5boost10shared_ptrIN8QuantLib9IborIndexEEptEv(ptr noundef nonnull align 8 dereferenceable(16) %iborIndex_)
  %optionletDates_ = getelementptr inbounds nuw %"class.QuantLib::StrippedOptionlet", ptr %this1, i32 0, i32 9
  %3 = load i64, ptr %i, align 8, !tbaa !37
  %call2 = call noundef nonnull align 8 dereferenceable(8) ptr @_ZNKSt6vectorIN8QuantLib4DateESaIS1_EEixEm(ptr noundef nonnull align 8 dereferenceable(24) %optionletDates_, i64 noundef %3) #12
  %vtable3 = load ptr, ptr %call, align 8, !tbaa !20
  %vfn4 = getelementptr inbounds ptr, ptr %vtable3, i64 5
  %4 = load ptr, ptr %vfn4, align 8
  %call5 = call noundef double %4(ptr noundef nonnull align 8 dereferenceable(240) %call, ptr noundef nonnull align 8 dereferenceable(8) %call2, i1 noundef zeroext true)
  %optionletAtmRates_ = getelementptr inbounds nuw %"class.QuantLib::StrippedOptionlet", ptr %this1, i32 0, i32 11
  %5 = load i64, ptr %i, align 8, !tbaa !37
  %call6 = call noundef nonnull align 8 dereferenceable(8) ptr @_ZNSt6vectorIdSaIdEEixEm(ptr noundef nonnull align 8 dereferenceable(24) %optionletAtmRates_, i64 noundef %5) #12
  store double %call5, ptr %call6, align 8, !tbaa !30
  br label %for.inc

for.inc:                                          ; preds = %for.body
  %6 = load i64, ptr %i, align 8, !tbaa !37
  %inc = add i64 %6, 1
  store i64 %inc, ptr %i, align 8, !tbaa !37
  br label %for.cond, !llvm.loop !93

for.end:                                          ; preds = %for.cond.cleanup
  %optionletAtmRates_7 = getelementptr inbounds nuw %"class.QuantLib::StrippedOptionlet", ptr %this1, i32 0, i32 11
  ret ptr %optionletAtmRates_7
}