; Function Attrs: mustprogress uwtable
define noundef nonnull align 8 dereferenceable(24) ptr @_ZNK8QuantLib17StrippedOptionlet17atmOptionletRatesEv(ptr noundef nonnull align 8 dereferenceable(240) %this) unnamed_addr #8 align 2 {
entry:
  %vtable = load ptr, ptr %this, align 8, !tbaa !33
  %vfn = getelementptr inbounds i8, ptr %vtable, i64 24
  %0 = load ptr, ptr %vfn, align 8
  tail call void %0(ptr noundef nonnull align 8 dereferenceable(12) %this)
  %nOptionletDates_ = getelementptr inbounds nuw i8, ptr %this, i64 88
  %1 = load i64, ptr %nOptionletDates_, align 8, !tbaa !92
  %cmp5.not = icmp eq i64 %1, 0
  br i1 %cmp5.not, label %for.cond.cleanup, label %for.body.lr.ph

for.body.lr.ph:                                   ; preds = %entry
  %iborIndex_ = getelementptr inbounds nuw i8, ptr %this, i64 56
  %optionletDates_ = getelementptr inbounds nuw i8, ptr %this, i64 96
  %optionletAtmRates_ = getelementptr inbounds nuw i8, ptr %this, i64 144
  br label %for.body

for.cond.cleanup:                                 ; preds = %_ZNK5boost10shared_ptrIN8QuantLib9IborIndexEEptEv.exit, %entry
  %optionletAtmRates_7 = getelementptr inbounds nuw i8, ptr %this, i64 144
  ret ptr %optionletAtmRates_7

for.body:                                         ; preds = %for.body.lr.ph, %_ZNK5boost10shared_ptrIN8QuantLib9IborIndexEEptEv.exit
  %i.06 = phi i64 [ 0, %for.body.lr.ph ], [ %inc, %_ZNK5boost10shared_ptrIN8QuantLib9IborIndexEEptEv.exit ]
  %2 = load ptr, ptr %iborIndex_, align 8, !tbaa !44
  %cmp.not.i = icmp eq ptr %2, null
  br i1 %cmp.not.i, label %cond.false.i, label %_ZNK5boost10shared_ptrIN8QuantLib9IborIndexEEptEv.exit, !prof !93

cond.false.i:                                     ; preds = %for.body
  tail call void @_ZN5boost16assertion_failedEPKcS1_S1_l(ptr noundef nonnull @.str.23, ptr noundef nonnull @__PRETTY_FUNCTION__._ZNK5boost10shared_ptrIN8QuantLib9IborIndexEEptEv, ptr noundef nonnull @.str.24, i64 noundef 784)
  %.pre.i = load ptr, ptr %iborIndex_, align 8, !tbaa !44
  br label %_ZNK5boost10shared_ptrIN8QuantLib9IborIndexEEptEv.exit

_ZNK5boost10shared_ptrIN8QuantLib9IborIndexEEptEv.exit: ; preds = %for.body, %cond.false.i
  %3 = phi ptr [ %2, %for.body ], [ %.pre.i, %cond.false.i ]
  %4 = load ptr, ptr %optionletDates_, align 8, !tbaa !48
  %add.ptr.i = getelementptr inbounds nuw %"class.QuantLib::Date", ptr %4, i64 %i.06
  %vtable3 = load ptr, ptr %3, align 8, !tbaa !33
  %vfn4 = getelementptr inbounds i8, ptr %vtable3, i64 40
  %5 = load ptr, ptr %vfn4, align 8
  %call5 = tail call noundef double %5(ptr noundef nonnull align 8 dereferenceable(240) %3, ptr noundef nonnull align 8 dereferenceable(8) %add.ptr.i, i1 noundef zeroext true)
  %6 = load ptr, ptr %optionletAtmRates_, align 8, !tbaa !59
  %add.ptr.i4 = getelementptr inbounds nuw double, ptr %6, i64 %i.06
  store double %call5, ptr %add.ptr.i4, align 8, !tbaa !96
  %inc = add nuw i64 %i.06, 1
  %7 = load i64, ptr %nOptionletDates_, align 8, !tbaa !92
  %cmp = icmp ult i64 %inc, %7
  br i1 %cmp, label %for.body, label %for.cond.cleanup, !llvm.loop !133
}